target datalayout = "e-m:e-p270:32:32-p271:32:32-p272:64:64-i64:64-i128:128-f80:128-n8:16:32:64-S128"
target triple = "x86_64-pc-linux-gnu"

%class.QMetaType = type { ptr }

; Function Attrs: mustprogress nounwind uwtable
define linkonce_odr void @_ZN9QMetaTypeC2EPKN9QtPrivate18QMetaTypeInterfaceE(ptr noundef nonnull align 8 dereferenceable(8) %0, ptr noundef %1) unnamed_addr #2 comdat align 2 {
  %3 = alloca ptr, align 8
  %4 = alloca ptr, align 8
  store ptr %0, ptr %3, align 8
  store ptr %1, ptr %4, align 8
  %5 = load ptr, ptr %3, align 8
  %6 = getelementptr inbounds %class.QMetaType, ptr %5, i32 0, i32 0
  %7 = load ptr, ptr %4, align 8
  store ptr %7, ptr %6, align 8
  ret void
}

; Function Attrs: mustprogress nounwind uwtable
define linkonce_odr noundef ptr @_ZN9QtPrivate25qMetaTypeInterfaceForTypeIP7QWidgetEEPKNS_18QMetaTypeInterfaceEv() #2 comdat {
  ret ptr @_ZN9QtPrivate25QMetaTypeInterfaceWrapperIP7QWidgetE8metaTypeE
}

; Function Attrs: mustprogress uwtable
define linkonce_odr ptr @_ZN9QMetaType8fromTypeIP7QWidgetEES_v() #0 comdat align 2 {
  %1 = alloca %class.QMetaType, align 8
  %2 = call noundef ptr @_ZN9QtPrivate25qMetaTypeInterfaceForTypeIP7QWidgetEEPKNS_18QMetaTypeInterfaceEv()
  call void @_ZN9QMetaTypeC2EPKN9QtPrivate18QMetaTypeInterfaceE(ptr noundef nonnull align 8 dereferenceable(8) %1, ptr noundef %2)
  %3 = getelementptr inbounds %class.QMetaType, ptr %1, i32 0, i32 0
  %4 = load ptr, ptr %3, align 8
  ret ptr %4
}

; Function Attrs: mustprogress nounwind uwtable
define linkonce_odr void @_ZN9QMetaTypeC2Ev(ptr noundef nonnull align 8 dereferenceable(8) %0) unnamed_addr #2 comdat align 2 {
  %2 = alloca ptr, align 8
  store ptr %0, ptr %2, align 8
  %3 = load ptr, ptr %2, align 8
  %4 = getelementptr inbounds %class.QMetaType, ptr %3, i32 0, i32 0
  store ptr null, ptr %4, align 8
  ret void
}

; Function Attrs: mustprogress uwtable
define hidden void @_ZN11CMainWindow18qt_static_metacallEP7QObjectN11QMetaObject4CallEiPPv(ptr noundef %0, i32 noundef %1, i32 noundef %2, ptr noundef %3) #0 align 2 {
  %5 = alloca ptr, align 8
  %6 = alloca i32, align 4
  %7 = alloca i32, align 4
  %8 = alloca ptr, align 8
  %9 = alloca ptr, align 8
  %10 = alloca ptr, align 8
  %11 = alloca %class.QMetaType, align 8
  %12 = alloca %class.QMetaType, align 8
  %13 = alloca %class.QMetaType, align 8
  store ptr %0, ptr %5, align 8
  store i32 %1, ptr %6, align 4
  store i32 %2, ptr %7, align 4
  store ptr %3, ptr %8, align 8
  %14 = load i32, ptr %6, align 4
  %15 = icmp eq i32 %14, 0
  br i1 %15, label %16, label %72

16:                                               ; preds = %4
  %17 = load ptr, ptr %5, align 8
  store ptr %17, ptr %9, align 8
  %18 = load i32, ptr %7, align 4
  switch i32 %18, label %70 [
    i32 0, label %19
    i32 1, label %21
    i32 2, label %27
    i32 3, label %29
    i32 4, label %31
    i32 5, label %33
    i32 6, label %35
    i32 7, label %37
    i32 8, label %39
    i32 9, label %41
    i32 10, label %43
    i32 11, label %45
    i32 12, label %47
    i32 13, label %49
    i32 14, label %51
    i32 15, label %64
  ]

19:                                               ; preds = %16
  %20 = load ptr, ptr %9, align 8
  call void @_ZN11CMainWindow12slotSettingsEv(ptr noundef nonnull align 8 dereferenceable(288) %20)
  br label %71

21:                                               ; preds = %16
  %22 = load ptr, ptr %9, align 8
  %23 = load ptr, ptr %8, align 8
  %24 = getelementptr inbounds ptr, ptr %23, i64 1
  %25 = load ptr, ptr %24, align 8
  %26 = load ptr, ptr %25, align 8
  call void @_ZN11CMainWindow7slotRunEP8MdiChild(ptr noundef nonnull align 8 dereferenceable(288) %22, ptr noundef %26)
  br label %71

27:                                               ; preds = %16
  %28 = load ptr, ptr %9, align 8
  call void @_ZN11CMainWindow7slotRunEP8MdiChild(ptr noundef nonnull align 8 dereferenceable(288) %28, ptr noundef null)
  br label %71

29:                                               ; preds = %16
  %30 = load ptr, ptr %9, align 8
  call void @_ZN11CMainWindow7slotNewEv(ptr noundef nonnull align 8 dereferenceable(288) %30)
  br label %71

31:                                               ; preds = %16
  %32 = load ptr, ptr %9, align 8
  call void @_ZN11CMainWindow8slotOpenEv(ptr noundef nonnull align 8 dereferenceable(288) %32)
  br label %71

33:                                               ; preds = %16
  %34 = load ptr, ptr %9, align 8
  call void @_ZN11CMainWindow8slotSaveEv(ptr noundef nonnull align 8 dereferenceable(288) %34)
  br label %71

35:                                               ; preds = %16
  %36 = load ptr, ptr %9, align 8
  call void @_ZN11CMainWindow10slotSaveAsEv(ptr noundef nonnull align 8 dereferenceable(288) %36)
  br label %71

37:                                               ; preds = %16
  %38 = load ptr, ptr %9, align 8
  call void @_ZN11CMainWindow7slotCutEv(ptr noundef nonnull align 8 dereferenceable(288) %38)
  br label %71

39:                                               ; preds = %16
  %40 = load ptr, ptr %9, align 8
  call void @_ZN11CMainWindow8slotCopyEv(ptr noundef nonnull align 8 dereferenceable(288) %40)
  br label %71

41:                                               ; preds = %16
  %42 = load ptr, ptr %9, align 8
  call void @_ZN11CMainWindow9slotPasteEv(ptr noundef nonnull align 8 dereferenceable(288) %42)
  br label %71

43:                                               ; preds = %16
  %44 = load ptr, ptr %9, align 8
  call void @_ZN11CMainWindow9slotAboutEv(ptr noundef nonnull align 8 dereferenceable(288) %44)
  br label %71

45:                                               ; preds = %16
  %46 = load ptr, ptr %9, align 8
  call void @_ZN11CMainWindow16slotRefreshMenusEv(ptr noundef nonnull align 8 dereferenceable(288) %46)
  br label %71

47:                                               ; preds = %16
  %48 = load ptr, ptr %9, align 8
  call void @_ZN11CMainWindow10slotNewLogEv(ptr noundef nonnull align 8 dereferenceable(288) %48)
  br label %71

49:                                               ; preds = %16
  %50 = load ptr, ptr %9, align 8
  call void @_ZN11CMainWindow11slotSaveLogEv(ptr noundef nonnull align 8 dereferenceable(288) %50)
  br label %71

51:                                               ; preds = %16
  %52 = load ptr, ptr %9, align 8
  %53 = call noundef ptr @_ZN11CMainWindow14createMdiChildEv(ptr noundef nonnull align 8 dereferenceable(288) %52)
  store ptr %53, ptr %10, align 8
  %54 = load ptr, ptr %8, align 8
  %55 = getelementptr inbounds ptr, ptr %54, i64 0
  %56 = load ptr, ptr %55, align 8
  %57 = icmp ne ptr %56, null
  br i1 %57, label %58, label %63

58:                                               ; preds = %51
  %59 = load ptr, ptr %10, align 8
  %60 = load ptr, ptr %8, align 8
  %61 = getelementptr inbounds ptr, ptr %60, i64 0
  %62 = load ptr, ptr %61, align 8
  store ptr %59, ptr %62, align 8
  br label %63

63:                                               ; preds = %58, %51
  br label %71

64:                                               ; preds = %16
  %65 = load ptr, ptr %9, align 8
  %66 = load ptr, ptr %8, align 8
  %67 = getelementptr inbounds ptr, ptr %66, i64 1
  %68 = load ptr, ptr %67, align 8
  %69 = load ptr, ptr %68, align 8
  call void @_ZN11CMainWindow13activateChildEP7QWidget(ptr noundef nonnull align 8 dereferenceable(288) %65, ptr noundef %69)
  br label %71

70:                                               ; preds = %16
  br label %71

71:                                               ; preds = %70, %64, %63, %49, %47, %45, %43, %41, %39, %37, %35, %33, %31, %29, %27, %21, %19
  br label %99

72:                                               ; preds = %4
  %73 = load i32, ptr %6, align 4
  %74 = icmp eq i32 %73, 7
  br i1 %74, label %75, label %98

75:                                               ; preds = %72
  %76 = load i32, ptr %7, align 4
  switch i32 %76, label %77 [
    i32 15, label %81
  ]

77:                                               ; preds = %75
  call void @llvm.memset.p0.i64(ptr align 8 %11, i8 0, i64 8, i1 false)
  call void @_ZN9QMetaTypeC2Ev(ptr noundef nonnull align 8 dereferenceable(8) %11) #10
  %78 = load ptr, ptr %8, align 8
  %79 = getelementptr inbounds ptr, ptr %78, i64 0
  %80 = load ptr, ptr %79, align 8
  call void @llvm.memcpy.p0.p0.i64(ptr align 8 %80, ptr align 8 %11, i64 8, i1 false)
  br label %97

81:                                               ; preds = %75
  %82 = load ptr, ptr %8, align 8
  %83 = getelementptr inbounds ptr, ptr %82, i64 1
  %84 = load ptr, ptr %83, align 8
  %85 = load i32, ptr %84, align 4
  switch i32 %85, label %86 [
    i32 0, label %90
  ]

86:                                               ; preds = %81
  call void @llvm.memset.p0.i64(ptr align 8 %12, i8 0, i64 8, i1 false)
  call void @_ZN9QMetaTypeC2Ev(ptr noundef nonnull align 8 dereferenceable(8) %12) #10
  %87 = load ptr, ptr %8, align 8
  %88 = getelementptr inbounds ptr, ptr %87, i64 0
  %89 = load ptr, ptr %88, align 8
  call void @llvm.memcpy.p0.p0.i64(ptr align 8 %89, ptr align 8 %12, i64 8, i1 false)
  br label %96

90:                                               ; preds = %81
  %91 = call ptr @_ZN9QMetaType8fromTypeIP7QWidgetEES_v()
  %92 = getelementptr inbounds %class.QMetaType, ptr %13, i32 0, i32 0
  store ptr %91, ptr %92, align 8
  %93 = load ptr, ptr %8, align 8
  %94 = getelementptr inbounds ptr, ptr %93, i64 0
  %95 = load ptr, ptr %94, align 8
  call void @llvm.memcpy.p0.p0.i64(ptr align 8 %95, ptr align 8 %13, i64 8, i1 false)
  br label %96

96:                                               ; preds = %90, %86
  br label %97

97:                                               ; preds = %96, %77
  br label %98

98:                                               ; preds = %97, %72
  br label %99

99:                                               ; preds = %98, %71
  ret void
}