; Function Attrs: mustprogress uwtable
define hidden void @_ZN11CMainWindow18qt_static_metacallEP7QObjectN11QMetaObject4CallEiPPv(ptr noundef %0, i32 noundef %1, i32 noundef %2, ptr nocapture noundef readonly %3) #0 align 2 {
  switch i32 %1, label %41 [
    i32 0, label %5
    i32 7, label %31
  ]

5:                                                ; preds = %4
  switch i32 %2, label %41 [
    i32 0, label %6
    i32 1, label %7
    i32 2, label %11
    i32 3, label %12
    i32 4, label %13
    i32 5, label %14
    i32 6, label %15
    i32 7, label %16
    i32 8, label %17
    i32 9, label %18
    i32 10, label %19
    i32 11, label %20
    i32 12, label %21
    i32 13, label %22
    i32 14, label %23
    i32 15, label %27
  ]

6:                                                ; preds = %5
  tail call void @_ZN11CMainWindow12slotSettingsEv(ptr noundef nonnull align 8 dereferenceable(288) %0)
  br label %41

7:                                                ; preds = %5
  %8 = getelementptr inbounds i8, ptr %3, i64 8
  %9 = load ptr, ptr %8, align 8
  %10 = load ptr, ptr %9, align 8
  tail call void @_ZN11CMainWindow7slotRunEP8MdiChild(ptr noundef nonnull align 8 dereferenceable(288) %0, ptr noundef %10)
  br label %41

11:                                               ; preds = %5
  tail call void @_ZN11CMainWindow7slotRunEP8MdiChild(ptr noundef nonnull align 8 dereferenceable(288) %0, ptr noundef null)
  br label %41

12:                                               ; preds = %5
  tail call void @_ZN11CMainWindow7slotNewEv(ptr noundef nonnull align 8 dereferenceable(288) %0)
  br label %41

13:                                               ; preds = %5
  tail call void @_ZN11CMainWindow8slotOpenEv(ptr noundef nonnull align 8 dereferenceable(288) %0)
  br label %41

14:                                               ; preds = %5
  tail call void @_ZN11CMainWindow8slotSaveEv(ptr noundef nonnull align 8 dereferenceable(288) %0)
  br label %41

15:                                               ; preds = %5
  tail call void @_ZN11CMainWindow10slotSaveAsEv(ptr noundef nonnull align 8 dereferenceable(288) %0)
  br label %41

16:                                               ; preds = %5
  tail call void @_ZN11CMainWindow7slotCutEv(ptr noundef nonnull align 8 dereferenceable(288) %0)
  br label %41

17:                                               ; preds = %5
  tail call void @_ZN11CMainWindow8slotCopyEv(ptr noundef nonnull align 8 dereferenceable(288) %0)
  br label %41

18:                                               ; preds = %5
  tail call void @_ZN11CMainWindow9slotPasteEv(ptr noundef nonnull align 8 dereferenceable(288) %0)
  br label %41

19:                                               ; preds = %5
  tail call void @_ZN11CMainWindow9slotAboutEv(ptr noundef nonnull align 8 dereferenceable(288) %0)
  br label %41

20:                                               ; preds = %5
  tail call void @_ZN11CMainWindow16slotRefreshMenusEv(ptr noundef nonnull align 8 dereferenceable(288) %0)
  br label %41

21:                                               ; preds = %5
  tail call void @_ZN11CMainWindow10slotNewLogEv(ptr noundef nonnull align 8 dereferenceable(288) %0)
  br label %41

22:                                               ; preds = %5
  tail call void @_ZN11CMainWindow11slotSaveLogEv(ptr noundef nonnull align 8 dereferenceable(288) %0)
  br label %41

23:                                               ; preds = %5
  %24 = tail call noundef ptr @_ZN11CMainWindow14createMdiChildEv(ptr noundef nonnull align 8 dereferenceable(288) %0)
  %25 = load ptr, ptr %3, align 8
  %.not = icmp eq ptr %25, null
  br i1 %.not, label %41, label %26

26:                                               ; preds = %23
  store ptr %24, ptr %25, align 8
  br label %41

27:                                               ; preds = %5
  %28 = getelementptr inbounds i8, ptr %3, i64 8
  %29 = load ptr, ptr %28, align 8
  %30 = load ptr, ptr %29, align 8
  tail call void @_ZN11CMainWindow13activateChildEP7QWidget(ptr noundef nonnull align 8 dereferenceable(288) %0, ptr noundef %30)
  br label %41

31:                                               ; preds = %4
  %cond = icmp eq i32 %2, 15
  br i1 %cond, label %34, label %32

32:                                               ; preds = %31
  %33 = load ptr, ptr %3, align 8
  store i64 0, ptr %33, align 8
  br label %41

34:                                               ; preds = %31
  %35 = getelementptr inbounds i8, ptr %3, i64 8
  %36 = load ptr, ptr %35, align 8
  %37 = load i32, ptr %36, align 4
  %cond1 = icmp eq i32 %37, 0
  %38 = load ptr, ptr %3, align 8
  br i1 %cond1, label %40, label %39

39:                                               ; preds = %34
  store i64 0, ptr %38, align 8
  br label %41

40:                                               ; preds = %34
  store ptr @_ZN9QtPrivate25QMetaTypeInterfaceWrapperIP7QWidgetE8metaTypeE, ptr %38, align 8
  br label %41

41:                                               ; preds = %4, %39, %40, %32, %6, %7, %11, %12, %13, %14, %15, %16, %17, %18, %19, %20, %21, %22, %27, %26, %23, %5
  ret void
}